Certificate:
    Data:
        Version: 3 (0x2)
        Serial Number:
            97:bb:5f:f5:76:5c:95:5a
        Signature Algorithm: sha1WithRSAEncryption
        Issuer: C=GB, ST=Oxfordshire, O=Alces Software Ltd, CN=Alces Software Ltd Root CA/emailAddress=staff@alces-software.com
        Validity
            Not Before: Oct 13 18:45:08 2011 GMT
            Not After : Oct 10 18:45:08 2021 GMT
        Subject: C=GB, ST=Oxfordshire, L=Bicester, O=Alces Software Ltd, CN=polymorph.headnode.wizbit.dmz.alces-software.com
        Subject Public Key Info:
            Public Key Algorithm: rsaEncryption
                Public-Key: (1024 bit)
                Modulus:
                    00:ed:fa:f8:cf:cc:9e:ac:33:c2:d0:89:95:72:02:
                    d0:4c:33:e5:c9:97:25:ea:4f:38:b3:58:21:93:49:
                    a6:a7:cd:81:a7:33:76:ce:2c:e8:bc:c6:84:a3:6c:
                    a2:dd:52:60:12:ad:1f:42:3b:93:40:31:3f:34:d4:
                    ba:f3:e1:70:5e:35:12:80:b6:a0:67:3d:58:94:c3:
                    08:f1:6a:d3:3b:8c:c0:0e:a9:cf:eb:5a:25:f7:0f:
                    d3:a8:0a:e4:bf:82:36:4c:98:09:3e:60:50:1a:ed:
                    5e:7d:30:b1:e1:36:d9:54:b4:04:5d:83:a2:6b:9c:
                    41:ef:cc:b1:11:9a:af:c7:69
                Exponent: 65537 (0x10001)
        X509v3 extensions:
            X509v3 Basic Constraints: 
                CA:FALSE
            Netscape Comment: 
                OpenSSL Generated Certificate
            X509v3 Subject Key Identifier: 
                6F:F8:7D:CF:1F:AE:02:4C:49:64:99:F1:B9:A5:D1:29:11:E2:44:7E
            X509v3 Authority Key Identifier: 
                keyid:DA:4F:91:0C:BD:76:10:90:A4:6C:64:D3:0B:F6:81:3C:FB:28:06:3E

    Signature Algorithm: sha1WithRSAEncryption
        24:3a:31:dc:3d:df:0d:7e:89:4c:0f:45:78:d7:9d:99:bb:31:
        5b:91:b0:8f:cd:c0:4f:ff:b3:95:1a:ee:9a:bf:21:fd:3a:34:
        18:43:8d:87:19:2f:9d:c9:b6:b1:7f:fc:0d:5e:0d:2a:be:e7:
        14:3e:3d:ec:aa:13:42:cb:88:4f:20:b7:61:61:7a:92:24:cf:
        b0:c4:b6:5c:4b:4b:8e:e6:70:f4:28:98:b5:46:8c:94:bc:71:
        28:ca:70:b5:53:5c:89:f5:cc:25:a8:54:dd:0c:47:9d:93:d4:
        6c:9f:30:b9:a2:e8:f8:6f:7b:5f:1e:75:38:cf:f2:2e:9a:a5:
        17:0d
-----BEGIN CERTIFICATE-----
MIIDFzCCAoCgAwIBAgIJAJe7X/V2XJVaMA0GCSqGSIb3DQEBBQUAMIGOMQswCQYD
VQQGEwJHQjEUMBIGA1UECAwLT3hmb3Jkc2hpcmUxGzAZBgNVBAoMEkFsY2VzIFNv
ZnR3YXJlIEx0ZDEjMCEGA1UEAwwaQWxjZXMgU29mdHdhcmUgTHRkIFJvb3QgQ0Ex
JzAlBgkqhkiG9w0BCQEWGHN0YWZmQGFsY2VzLXNvZnR3YXJlLmNvbTAeFw0xMTEw
MTMxODQ1MDhaFw0yMTEwMTAxODQ1MDhaMIGOMQswCQYDVQQGEwJHQjEUMBIGA1UE
CAwLT3hmb3Jkc2hpcmUxETAPBgNVBAcMCEJpY2VzdGVyMRswGQYDVQQKDBJBbGNl
cyBTb2Z0d2FyZSBMdGQxOTA3BgNVBAMMMHBvbHltb3JwaC5oZWFkbm9kZS53aXpi
aXQuZG16LmFsY2VzLXNvZnR3YXJlLmNvbTCBnzANBgkqhkiG9w0BAQEFAAOBjQAw
gYkCgYEA7fr4z8yerDPC0ImVcgLQTDPlyZcl6k84s1ghk0mmp82BpzN2zizovMaE
o2yi3VJgEq0fQjuTQDE/NNS68+FwXjUSgLagZz1YlMMI8WrTO4zADqnP61ol9w/T
qArkv4I2TJgJPmBQGu1efTCx4TbZVLQEXYOia5xB78yxEZqvx2kCAwEAAaN7MHkw
CQYDVR0TBAIwADAsBglghkgBhvhCAQ0EHxYdT3BlblNTTCBHZW5lcmF0ZWQgQ2Vy
dGlmaWNhdGUwHQYDVR0OBBYEFG/4fc8frgJMSWSZ8bml0SkR4kR+MB8GA1UdIwQY
MBaAFNpPkQy9dhCQpGxk0wv2gTz7KAY+MA0GCSqGSIb3DQEBBQUAA4GBACQ6Mdw9
3w1+iUwPRXjXnZm7MVuRsI/NwE//s5Ua7pq/If06NBhDjYcZL53JtrF//A1eDSq+
5xQ+PeyqE0LLiE8gt2FhepIkz7DEtlxLS47mcPQomLVGjJS8cSjKcLVTXIn1zCWo
VN0MR52T1GyfMLmi6Phve18edTjP8i6apRcN
-----END CERTIFICATE-----
