Certificate:
    Data:
        Version: 3 (0x2)
        Serial Number:
            97:bb:5f:f5:76:5c:95:56
        Signature Algorithm: sha1WithRSAEncryption
        Issuer: C=GB, ST=Oxfordshire, O=Alces Software Ltd, CN=Alces Software Ltd Root CA/emailAddress=staff@alces-software.com
        Validity
            Not Before: Aug 31 15:37:49 2011 GMT
            Not After : Aug 26 15:37:49 2031 GMT
        Subject: C=GB, ST=Oxfordshire, O=Alces Software Ltd, CN=Alces Software Ltd Root CA/emailAddress=staff@alces-software.com
        Subject Public Key Info:
            Public Key Algorithm: rsaEncryption
                Public-Key: (1024 bit)
                Modulus:
                    00:d2:72:25:59:21:7f:0c:19:81:c7:f3:7f:a2:cb:
                    ad:29:91:12:1d:09:2a:fa:13:3c:50:61:9c:05:a4:
                    a5:70:59:76:b7:79:c6:86:be:f1:c6:73:f3:40:f8:
                    d0:7c:cb:72:94:c3:20:f4:59:fe:8d:50:25:9b:a2:
                    71:64:78:ed:30:76:ed:4a:07:44:54:6b:67:2e:19:
                    c5:11:57:86:42:a0:d4:d4:9c:dc:e2:7b:46:b9:71:
                    6f:77:4a:eb:12:50:21:d0:b6:be:d2:a9:f4:9d:49:
                    cd:26:6c:cd:c4:36:7c:74:1c:01:35:83:e4:94:35:
                    01:f0:d1:73:c5:ea:22:80:11
                Exponent: 65537 (0x10001)
        X509v3 extensions:
            X509v3 Subject Key Identifier: 
                DA:4F:91:0C:BD:76:10:90:A4:6C:64:D3:0B:F6:81:3C:FB:28:06:3E
            X509v3 Authority Key Identifier: 
                keyid:DA:4F:91:0C:BD:76:10:90:A4:6C:64:D3:0B:F6:81:3C:FB:28:06:3E

            X509v3 Basic Constraints: 
                CA:TRUE
    Signature Algorithm: sha1WithRSAEncryption
        06:92:81:1f:8c:f8:ce:b5:0c:f5:93:ed:67:20:3c:12:ba:f7:
        95:04:a8:46:33:33:3e:f9:93:bd:ff:fe:7b:23:ce:01:ea:44:
        63:3f:66:e7:d7:85:ee:aa:06:42:e5:ce:b5:eb:39:cf:d9:89:
        6b:1a:5a:08:cd:de:d4:23:e2:e5:6f:aa:a3:f9:85:a6:77:b8:
        ea:a1:88:ce:a2:38:98:d9:cf:c6:53:4d:82:69:b6:3e:54:26:
        06:9a:38:d2:5d:a1:15:62:93:91:d2:9e:a4:22:7b:e2:93:b8:
        a8:ed:9e:9c:47:1a:42:86:ae:3a:19:7d:b7:fe:4d:ea:3d:34:
        97:d2
-----BEGIN CERTIFICATE-----
MIIC7DCCAlWgAwIBAgIJAJe7X/V2XJVWMA0GCSqGSIb3DQEBBQUAMIGOMQswCQYD
VQQGEwJHQjEUMBIGA1UECAwLT3hmb3Jkc2hpcmUxGzAZBgNVBAoMEkFsY2VzIFNv
ZnR3YXJlIEx0ZDEjMCEGA1UEAwwaQWxjZXMgU29mdHdhcmUgTHRkIFJvb3QgQ0Ex
JzAlBgkqhkiG9w0BCQEWGHN0YWZmQGFsY2VzLXNvZnR3YXJlLmNvbTAeFw0xMTA4
MzExNTM3NDlaFw0zMTA4MjYxNTM3NDlaMIGOMQswCQYDVQQGEwJHQjEUMBIGA1UE
CAwLT3hmb3Jkc2hpcmUxGzAZBgNVBAoMEkFsY2VzIFNvZnR3YXJlIEx0ZDEjMCEG
A1UEAwwaQWxjZXMgU29mdHdhcmUgTHRkIFJvb3QgQ0ExJzAlBgkqhkiG9w0BCQEW
GHN0YWZmQGFsY2VzLXNvZnR3YXJlLmNvbTCBnzANBgkqhkiG9w0BAQEFAAOBjQAw
gYkCgYEA0nIlWSF/DBmBx/N/osutKZESHQkq+hM8UGGcBaSlcFl2t3nGhr7xxnPz
QPjQfMtylMMg9Fn+jVAlm6JxZHjtMHbtSgdEVGtnLhnFEVeGQqDU1Jzc4ntGuXFv
d0rrElAh0La+0qn0nUnNJmzNxDZ8dBwBNYPklDUB8NFzxeoigBECAwEAAaNQME4w
HQYDVR0OBBYEFNpPkQy9dhCQpGxk0wv2gTz7KAY+MB8GA1UdIwQYMBaAFNpPkQy9
dhCQpGxk0wv2gTz7KAY+MAwGA1UdEwQFMAMBAf8wDQYJKoZIhvcNAQEFBQADgYEA
BpKBH4z4zrUM9ZPtZyA8Err3lQSoRjMzPvmTvf/+eyPOAepEYz9m59eF7qoGQuXO
tes5z9mJaxpaCM3e1CPi5W+qo/mFpne46qGIzqI4mNnPxlNNgmm2PlQmBpo40l2h
FWKTkdKepCJ74pO4qO2enEcaQoauOhl9t/5N6j00l9I=
-----END CERTIFICATE-----
