Certificate:
    Data:
        Version: 3 (0x2)
        Serial Number:
            97:bb:5f:f5:76:5c:95:a3
        Signature Algorithm: sha1WithRSAEncryption
        Issuer: C=GB, ST=Oxfordshire, O=Alces Software Ltd, CN=Alces Software Ltd Root CA/emailAddress=staff@alces-software.com
        Validity
            Not Before: Nov 30 11:32:54 2015 GMT
            Not After : Nov 27 11:32:54 2025 GMT
        Subject: C=GB, ST=Oxfordshire, L=Bicester, O=Alces Software Ltd, OU=Placeholder Certificate, CN=websockets.cluster.alces.network
        Subject Public Key Info:
            Public Key Algorithm: rsaEncryption
            RSA Public Key: (1024 bit)
                Modulus (1024 bit):
                    00:e5:7a:99:17:03:44:0e:c7:92:4a:71:13:bb:b1:
                    96:86:c9:d3:e2:78:1d:2b:86:e7:74:a3:d1:66:3e:
                    b8:08:95:ee:08:4f:cb:73:d4:c7:eb:5a:9a:97:c2:
                    82:cd:a2:8d:ca:a9:79:d5:58:6b:6b:88:78:ce:da:
                    57:3f:6f:98:6c:92:ec:9d:06:58:94:aa:29:6e:a7:
                    46:5b:59:ff:93:df:f3:45:7f:c3:de:a0:19:c2:9e:
                    93:f3:a1:dc:58:cb:a0:ca:d3:21:9e:8b:a2:08:0d:
                    88:70:52:a6:86:a4:3d:82:7f:61:0e:c6:ae:de:b3:
                    ea:b0:a8:78:16:b5:5b:3f:a7
                Exponent: 65537 (0x10001)
        X509v3 extensions:
            X509v3 Basic Constraints: 
                CA:FALSE
            Netscape Comment: 
                OpenSSL Generated Certificate
            X509v3 Subject Key Identifier: 
                DE:6D:B6:2B:21:3F:DF:44:8C:81:6C:31:85:59:39:0A:09:D1:F1:CA
            X509v3 Authority Key Identifier: 
                keyid:DA:4F:91:0C:BD:76:10:90:A4:6C:64:D3:0B:F6:81:3C:FB:28:06:3E

    Signature Algorithm: sha1WithRSAEncryption
        a8:f2:75:af:59:0a:0d:0f:f7:69:7b:95:17:0f:07:7b:9d:d6:
        68:bb:25:c4:a9:a8:d8:44:06:33:03:9e:b8:c1:d3:ed:26:9f:
        b1:31:92:1a:84:b2:75:c6:02:ad:55:c5:35:5a:9a:f2:fa:7a:
        99:4b:59:1d:44:97:ad:bf:ce:11:68:a8:ba:7f:38:39:49:ba:
        88:ca:44:50:42:2e:58:89:8f:5d:b6:a1:a8:76:48:d0:93:51:
        b8:b0:00:ac:5b:d3:c9:fd:d6:ec:41:a6:f6:8c:eb:46:47:17:
        9e:72:7c:f5:fb:22:45:1c:9a:c0:a6:ce:10:bc:9b:08:0b:9e:
        ab:57
-----BEGIN CERTIFICATE-----
MIIDKTCCApKgAwIBAgIJAJe7X/V2XJWjMA0GCSqGSIb3DQEBBQUAMIGOMQswCQYD
VQQGEwJHQjEUMBIGA1UECAwLT3hmb3Jkc2hpcmUxGzAZBgNVBAoMEkFsY2VzIFNv
ZnR3YXJlIEx0ZDEjMCEGA1UEAwwaQWxjZXMgU29mdHdhcmUgTHRkIFJvb3QgQ0Ex
JzAlBgkqhkiG9w0BCQEWGHN0YWZmQGFsY2VzLXNvZnR3YXJlLmNvbTAeFw0xNTEx
MzAxMTMyNTRaFw0yNTExMjcxMTMyNTRaMIGgMQswCQYDVQQGEwJHQjEUMBIGA1UE
CAwLT3hmb3Jkc2hpcmUxETAPBgNVBAcMCEJpY2VzdGVyMRswGQYDVQQKDBJBbGNl
cyBTb2Z0d2FyZSBMdGQxIDAeBgNVBAsMF1BsYWNlaG9sZGVyIENlcnRpZmljYXRl
MSkwJwYDVQQDDCB3ZWJzb2NrZXRzLmNsdXN0ZXIuYWxjZXMubmV0d29yazCBnzAN
BgkqhkiG9w0BAQEFAAOBjQAwgYkCgYEA5XqZFwNEDseSSnETu7GWhsnT4ngdK4bn
dKPRZj64CJXuCE/Lc9TH61qal8KCzaKNyql51Vhra4h4ztpXP2+YbJLsnQZYlKop
bqdGW1n/k9/zRX/D3qAZwp6T86HcWMugytMhnouiCA2IcFKmhqQ9gn9hDsau3rPq
sKh4FrVbP6cCAwEAAaN7MHkwCQYDVR0TBAIwADAsBglghkgBhvhCAQ0EHxYdT3Bl
blNTTCBHZW5lcmF0ZWQgQ2VydGlmaWNhdGUwHQYDVR0OBBYEFN5ttishP99EjIFs
MYVZOQoJ0fHKMB8GA1UdIwQYMBaAFNpPkQy9dhCQpGxk0wv2gTz7KAY+MA0GCSqG
SIb3DQEBBQUAA4GBAKjyda9ZCg0P92l7lRcPB3ud1mi7JcSpqNhEBjMDnrjB0+0m
n7ExkhqEsnXGAq1VxTVamvL6eplLWR1El62/zhFoqLp/ODlJuojKRFBCLliJj122
oah2SNCTUbiwAKxb08n91uxBpvaM60ZHF55yfPX7IkUcmsCmzhC8mwgLnqtX
-----END CERTIFICATE-----
