Certificate:
    Data:
        Version: 3 (0x2)
        Serial Number:
            97:bb:5f:f5:76:5c:95:a2
        Signature Algorithm: sha1WithRSAEncryption
        Issuer: C=GB, ST=Oxfordshire, O=Alces Software Ltd, CN=Alces Software Ltd Root CA/emailAddress=staff@alces-software.com
        Validity
            Not Before: Nov 30 11:31:21 2015 GMT
            Not After : Nov 27 11:31:21 2025 GMT
        Subject: C=GB, ST=Oxfordshire, L=Bicester, O=Alces Software Ltd, OU=Placeholder Certificate, CN=galaxy.cluster.alces.network
        Subject Public Key Info:
            Public Key Algorithm: rsaEncryption
            RSA Public Key: (1024 bit)
                Modulus (1024 bit):
                    00:99:dc:61:be:f3:ec:14:03:65:00:c3:4e:47:fa:
                    d5:11:b3:9e:d3:3d:e8:ff:b4:2d:d2:2e:a0:95:ed:
                    e4:f5:ce:83:a5:89:c2:0a:84:c9:42:c4:26:67:aa:
                    16:fd:2d:f9:15:e0:53:23:51:c7:a9:1c:0b:4b:6e:
                    75:df:74:c5:f1:1b:e6:9c:ac:5f:73:67:b5:2e:fb:
                    8a:4a:35:9b:8e:1c:2b:72:0a:64:c1:96:dd:79:26:
                    8b:bb:e3:d9:2e:aa:2f:8a:9c:81:01:c7:65:b0:1b:
                    28:59:df:06:ed:c6:81:48:13:fc:0d:81:4f:c2:1b:
                    ef:83:80:26:8f:89:ea:a1:db
                Exponent: 65537 (0x10001)
        X509v3 extensions:
            X509v3 Basic Constraints: 
                CA:FALSE
            Netscape Comment: 
                OpenSSL Generated Certificate
            X509v3 Subject Key Identifier: 
                9F:86:AF:6A:A9:58:A6:8A:D7:A6:97:38:F1:80:6C:C6:1C:05:73:EA
            X509v3 Authority Key Identifier: 
                keyid:DA:4F:91:0C:BD:76:10:90:A4:6C:64:D3:0B:F6:81:3C:FB:28:06:3E

    Signature Algorithm: sha1WithRSAEncryption
        2b:73:14:9e:f0:0e:fa:96:58:02:62:68:35:3c:9c:69:38:23:
        bb:31:e2:da:4d:a8:84:51:1d:95:2e:3b:1b:42:2b:9a:a5:d1:
        5c:92:f1:6c:5a:ea:c5:72:b1:0f:fe:88:fb:a1:6d:c2:d1:00:
        9d:f0:c5:55:de:3a:67:b5:64:2c:21:4b:e0:01:87:9b:17:4a:
        0a:46:04:30:0e:d5:9d:3d:b1:9c:29:33:85:a9:8e:45:ed:f5:
        c2:f7:a5:00:95:2a:4c:ef:10:57:65:19:68:b4:d1:88:2f:57:
        2c:0b:f0:8b:b5:ab:9e:61:21:74:ce:41:6a:c0:9b:f7:17:e5:
        78:40
-----BEGIN CERTIFICATE-----
MIIDJTCCAo6gAwIBAgIJAJe7X/V2XJWiMA0GCSqGSIb3DQEBBQUAMIGOMQswCQYD
VQQGEwJHQjEUMBIGA1UECAwLT3hmb3Jkc2hpcmUxGzAZBgNVBAoMEkFsY2VzIFNv
ZnR3YXJlIEx0ZDEjMCEGA1UEAwwaQWxjZXMgU29mdHdhcmUgTHRkIFJvb3QgQ0Ex
JzAlBgkqhkiG9w0BCQEWGHN0YWZmQGFsY2VzLXNvZnR3YXJlLmNvbTAeFw0xNTEx
MzAxMTMxMjFaFw0yNTExMjcxMTMxMjFaMIGcMQswCQYDVQQGEwJHQjEUMBIGA1UE
CAwLT3hmb3Jkc2hpcmUxETAPBgNVBAcMCEJpY2VzdGVyMRswGQYDVQQKDBJBbGNl
cyBTb2Z0d2FyZSBMdGQxIDAeBgNVBAsMF1BsYWNlaG9sZGVyIENlcnRpZmljYXRl
MSUwIwYDVQQDDBxnYWxheHkuY2x1c3Rlci5hbGNlcy5uZXR3b3JrMIGfMA0GCSqG
SIb3DQEBAQUAA4GNADCBiQKBgQCZ3GG+8+wUA2UAw05H+tURs57TPej/tC3SLqCV
7eT1zoOlicIKhMlCxCZnqhb9LfkV4FMjUcepHAtLbnXfdMXxG+acrF9zZ7Uu+4pK
NZuOHCtyCmTBlt15Jou749kuqi+KnIEBx2WwGyhZ3wbtxoFIE/wNgU/CG++DgCaP
ieqh2wIDAQABo3sweTAJBgNVHRMEAjAAMCwGCWCGSAGG+EIBDQQfFh1PcGVuU1NM
IEdlbmVyYXRlZCBDZXJ0aWZpY2F0ZTAdBgNVHQ4EFgQUn4avaqlYporXppc48YBs
xhwFc+owHwYDVR0jBBgwFoAU2k+RDL12EJCkbGTTC/aBPPsoBj4wDQYJKoZIhvcN
AQEFBQADgYEAK3MUnvAO+pZYAmJoNTycaTgjuzHi2k2ohFEdlS47G0IrmqXRXJLx
bFrqxXKxD/6I+6FtwtEAnfDFVd46Z7VkLCFL4AGHmxdKCkYEMA7VnT2xnCkzhamO
Re31wvelAJUqTO8QV2UZaLTRiC9XLAvwi7WrnmEhdM5BasCb9xfleEA=
-----END CERTIFICATE-----
