Certificate:
    Data:
        Version: 3 (0x2)
        Serial Number:
            97:bb:5f:f5:76:5c:95:a4
        Signature Algorithm: sha1WithRSAEncryption
        Issuer: C=GB, ST=Oxfordshire, O=Alces Software Ltd, CN=Alces Software Ltd Root CA/emailAddress=staff@alces-software.com
        Validity
            Not Before: Dec  1 16:51:33 2015 GMT
            Not After : Nov 28 16:51:33 2025 GMT
        Subject: C=GB, ST=Oxfordshire, L=Bicester, O=Alces Software Ltd, OU=Placeholder Certificate, CN=pulsar.cluster.galaxy.network
        Subject Public Key Info:
            Public Key Algorithm: rsaEncryption
            RSA Public Key: (1024 bit)
                Modulus (1024 bit):
                    00:e6:e3:bf:45:bc:58:2d:89:e5:6c:81:6a:7f:f4:
                    01:3c:52:db:1e:03:08:41:76:8f:3b:0e:10:7e:59:
                    e7:fb:56:0e:11:65:ec:40:e8:4a:07:3a:d0:8c:fa:
                    e4:85:86:80:c2:8a:de:ab:54:17:a0:96:20:04:94:
                    aa:5a:1e:f6:bc:82:aa:da:3c:dc:6c:b8:ee:a9:24:
                    58:55:f9:d8:fe:cf:34:06:98:ed:f3:0d:0b:ab:33:
                    58:f9:0e:22:98:be:ff:9f:a5:f1:c5:aa:24:7b:ed:
                    e2:50:f5:f9:09:58:5d:f2:ae:6e:7a:2f:e6:c9:c6:
                    2d:2c:11:3b:8c:6d:dc:9b:2d
                Exponent: 65537 (0x10001)
        X509v3 extensions:
            X509v3 Basic Constraints: 
                CA:FALSE
            Netscape Comment: 
                OpenSSL Generated Certificate
            X509v3 Subject Key Identifier: 
                33:C3:D3:E1:51:23:42:BB:C9:A4:1C:E9:A9:88:A2:D8:1F:89:A4:92
            X509v3 Authority Key Identifier: 
                keyid:DA:4F:91:0C:BD:76:10:90:A4:6C:64:D3:0B:F6:81:3C:FB:28:06:3E

    Signature Algorithm: sha1WithRSAEncryption
        6e:8c:bd:10:e7:97:29:2a:3a:57:d3:29:ae:67:06:de:72:b7:
        dc:4e:dc:e3:52:45:30:c5:e0:1f:2e:db:b9:f2:53:45:ef:d6:
        bf:01:c5:17:4b:6d:97:34:3a:b1:87:b0:ad:5f:57:c6:47:a3:
        18:e1:c3:86:16:d9:b7:47:93:4e:c8:64:c2:00:46:69:cb:70:
        6c:0b:9b:a8:a5:29:b6:d6:0b:c1:ed:14:ed:59:94:ce:01:22:
        b5:67:32:55:91:c3:e2:2d:cb:fd:94:68:17:66:a7:67:f4:30:
        34:11:37:5a:e4:f7:b0:d8:b2:0c:da:1e:b5:24:0b:d0:02:f0:
        5b:69
-----BEGIN CERTIFICATE-----
MIIDJjCCAo+gAwIBAgIJAJe7X/V2XJWkMA0GCSqGSIb3DQEBBQUAMIGOMQswCQYD
VQQGEwJHQjEUMBIGA1UECAwLT3hmb3Jkc2hpcmUxGzAZBgNVBAoMEkFsY2VzIFNv
ZnR3YXJlIEx0ZDEjMCEGA1UEAwwaQWxjZXMgU29mdHdhcmUgTHRkIFJvb3QgQ0Ex
JzAlBgkqhkiG9w0BCQEWGHN0YWZmQGFsY2VzLXNvZnR3YXJlLmNvbTAeFw0xNTEy
MDExNjUxMzNaFw0yNTExMjgxNjUxMzNaMIGdMQswCQYDVQQGEwJHQjEUMBIGA1UE
CAwLT3hmb3Jkc2hpcmUxETAPBgNVBAcMCEJpY2VzdGVyMRswGQYDVQQKDBJBbGNl
cyBTb2Z0d2FyZSBMdGQxIDAeBgNVBAsMF1BsYWNlaG9sZGVyIENlcnRpZmljYXRl
MSYwJAYDVQQDDB1wdWxzYXIuY2x1c3Rlci5nYWxheHkubmV0d29yazCBnzANBgkq
hkiG9w0BAQEFAAOBjQAwgYkCgYEA5uO/RbxYLYnlbIFqf/QBPFLbHgMIQXaPOw4Q
flnn+1YOEWXsQOhKBzrQjPrkhYaAworeq1QXoJYgBJSqWh72vIKq2jzcbLjuqSRY
VfnY/s80Bpjt8w0LqzNY+Q4imL7/n6Xxxaoke+3iUPX5CVhd8q5uei/mycYtLBE7
jG3cmy0CAwEAAaN7MHkwCQYDVR0TBAIwADAsBglghkgBhvhCAQ0EHxYdT3BlblNT
TCBHZW5lcmF0ZWQgQ2VydGlmaWNhdGUwHQYDVR0OBBYEFDPD0+FRI0K7yaQc6amI
otgfiaSSMB8GA1UdIwQYMBaAFNpPkQy9dhCQpGxk0wv2gTz7KAY+MA0GCSqGSIb3
DQEBBQUAA4GBAG6MvRDnlykqOlfTKa5nBt5yt9xO3ONSRTDF4B8u27nyU0Xv1r8B
xRdLbZc0OrGHsK1fV8ZHoxjhw4YW2bdHk07IZMIARmnLcGwLm6ilKbbWC8HtFO1Z
lM4BIrVnMlWRw+Ity/2UaBdmp2f0MDQRN1rk97DYsgzaHrUkC9AC8Ftp
-----END CERTIFICATE-----
-----BEGIN RSA PRIVATE KEY-----
MIICXQIBAAKBgQDm479FvFgtieVsgWp/9AE8UtseAwhBdo87DhB+Wef7Vg4RZexA
6EoHOtCM+uSFhoDCit6rVBegliAElKpaHva8gqraPNxsuO6pJFhV+dj+zzQGmO3z
DQurM1j5DiKYvv+fpfHFqiR77eJQ9fkJWF3yrm56L+bJxi0sETuMbdybLQIDAQAB
AoGAIds/jvBBVdwkojaP8VdMXxYfP1VeforuEdDMJlr0o2xI/9AcRqBJSqobLrET
lWjVtLE8WY8pL8kTxNgv6qsjrtV/7kzB65yS8rtaxFbLsHWq1fq1jGbJFr3Nffy1
CGs38Nk61Y+oSOUFuG3FApOmw87S14pnQF5woyixR8D8TgECQQD5DkiFjiTeIfhE
M9ydN1Z4Xbvn+EZLnWJklSlAi5dt7Pp661Jb8K6fNeXz21DkavjDbPt0mtQE0I/r
DwnnN+BBAkEA7VPMCXRPrGEx2mbdzV3az3oTxh+gz/09zwZqJMdMUz9lk5CUKjDN
wIMJJoUR/s8HMfRhBc+yDCMUoM7IQnI/7QJAXtuK0ZtW/WfQyCE8mICYJZYF2I8e
LvSNoiORp6zDCzIkIKb6IlxkFe2QXLWedLEteDlM+JdzwzWwauW6bt9AQQJBAN8L
h1JHXu3aNvlU/hYZpCCkUds9NGzlS2a7V5yTNhdzGKr0EVwJnAXW4Q2zuLLqrY90
Zo8IoQQpICT10l4odA0CQQCHJ3sZpciOpqM3cJ7oXTnwcWlkUW8XVTNcNL2UJFdN
30wwZbve74CBiKUiKyu0PQrRk7b2NeoXIececBzeYseO
-----END RSA PRIVATE KEY-----
